Certificate:
    Data:
        Version: 1 (0x0)
        Serial Number: 1 (0x1)
    Signature Algorithm: md5WithRSAEncryption
        Issuer: C=US, ST=Unset, L=Unset, O=Unset, CN=www.example.com
        Validity
            Not Before: May  9 06:48:20 2013 GMT
            Not After : May  9 06:48:20 2014 GMT
        Subject: C=US, ST=Unset, O=Unset, CN=www.example.com
        Subject Public Key Info:
            Public Key Algorithm: rsaEncryption
                Public-Key: (1024 bit)
                Modulus:
                    00:aa:b0:69:6b:c0:da:a1:5b:bb:3a:1f:d8:7e:bc:
                    e2:6a:10:3d:59:b4:59:dd:1b:f4:79:6d:63:89:8a:
                    42:d2:a7:3b:01:ba:5d:4e:73:15:27:4a:81:e2:a0:
                    e8:ba:bc:f4:4a:05:c3:55:e6:8e:dc:f1:b9:1d:d1:
                    38:4d:13:05:d7:48:a9:eb:53:b9:a4:ef:a7:55:33:
                    74:21:50:0e:9e:5b:63:64:05:3e:29:19:35:ba:0e:
                    83:4d:c4:e9:59:54:8a:7b:95:c1:b9:84:5a:95:85:
                    43:fa:4d:93:10:1f:4a:33:32:6f:22:85:06:07:bb:
                    70:53:41:a6:93:88:99:d1:37
                Exponent: 65537 (0x10001)
    Signature Algorithm: md5WithRSAEncryption
         7b:40:f6:1b:a0:9c:e7:67:e9:d7:7e:78:1b:40:a6:08:59:44:
         6e:4c:96:55:06:a8:69:49:31:fd:76:33:ee:68:b0:fc:15:5d:
         e7:c0:e0:f4:f2:ec:aa:ee:01:f9:ee:a0:ad:35:6a:ed:ec:2c:
         26:e3:c2:c8:e5:18:64:ce:2c:67:64:63:c6:25:4f:ca:ce:3c:
         2b:3a:6b:86:39:29:1a:09:c5:16:5b:65:d0:1a:b6:ca:a0:df:
         3a:28:11:e6:f4:6c:1a:9c:d6:f4:fa:61:0c:2f:5b:8f:55:3b:
         75:32:43:83:cf:8f:24:78:1a:23:c9:7f:ed:c7:41:8e:d3:22:
         f5:f1
-----BEGIN CERTIFICATE-----
MIICDTCCAXYCAQEwDQYJKoZIhvcNAQEEBQAwVzELMAkGA1UEBhMCVVMxDjAMBgNV
BAgTBVVuc2V0MQ4wDAYDVQQHEwVVbnNldDEOMAwGA1UEChMFVW5zZXQxGDAWBgNV
BAMTD3d3dy5leGFtcGxlLmNvbTAeFw0xMzA1MDkwNjQ4MjBaFw0xNDA1MDkwNjQ4
MjBaMEcxCzAJBgNVBAYTAlVTMQ4wDAYDVQQIEwVVbnNldDEOMAwGA1UEChMFVW5z
ZXQxGDAWBgNVBAMTD3d3dy5leGFtcGxlLmNvbTCBnzANBgkqhkiG9w0BAQEFAAOB
jQAwgYkCgYEAqrBpa8DaoVu7Oh/YfrziahA9WbRZ3Rv0eW1jiYpC0qc7AbpdTnMV
J0qB4qDourz0SgXDVeaO3PG5HdE4TRMF10ip61O5pO+nVTN0IVAOnltjZAU+KRk1
ug6DTcTpWVSKe5XBuYRalYVD+k2TEB9KMzJvIoUGB7twU0Gmk4iZ0TcCAwEAATAN
BgkqhkiG9w0BAQQFAAOBgQB7QPYboJznZ+nXfngbQKYIWURuTJZVBqhpSTH9djPu
aLD8FV3nwOD08uyq7gH57qCtNWrt7Cwm48LI5RhkzixnZGPGJU/KzjwrOmuGOSka
CcUWW2XQGrbKoN86KBHm9GwanNb0+mEML1uPVTt1MkODz48keBojyX/tx0GO0yL1
8Q==
-----END CERTIFICATE-----
