Certificate:
    Data:
        Version: 1 (0x0)
        Serial Number: 1 (0x1)
    Signature Algorithm: md5WithRSAEncryption
        Issuer: C=US, ST=Unset, L=Unset, O=Unset, CN=www.example.com
        Validity
            Not Before: May  9 09:19:09 2013 GMT
            Not After : May  9 09:19:09 2014 GMT
        Subject: C=US, ST=Unset, O=Unset, CN=www.example.com
        Subject Public Key Info:
            Public Key Algorithm: rsaEncryption
                Public-Key: (1024 bit)
                Modulus:
                    00:d4:29:7e:c0:62:f3:41:92:07:f0:0c:c2:d8:6f:
                    ac:43:5b:a7:c2:21:27:2f:7b:a4:59:19:34:4c:c9:
                    13:11:e5:0f:86:00:20:90:d1:fe:e0:f6:8d:41:eb:
                    47:0e:70:5c:96:71:75:61:e0:2f:75:cf:d4:b3:54:
                    61:ed:48:7d:97:79:da:59:f8:48:fe:e3:e4:7d:9f:
                    fd:9d:b0:a5:0f:d2:90:20:9b:39:02:4f:95:59:14:
                    86:61:4f:f1:45:f4:a0:fa:f4:32:78:17:69:ba:85:
                    c9:20:b8:a0:1c:e6:76:65:00:0a:7b:f6:f9:32:d0:
                    67:d1:1a:16:0a:43:0a:55:5d
                Exponent: 65537 (0x10001)
    Signature Algorithm: md5WithRSAEncryption
         90:ab:e2:d4:e3:ac:57:3b:51:87:a7:d8:1f:78:f6:cb:36:69:
         fb:79:92:2e:36:32:77:54:dc:c8:da:fc:c7:52:f4:a1:b2:56:
         4c:da:55:83:fe:c6:fc:5f:a3:16:1a:06:01:63:1b:d6:fe:04:
         53:42:e0:b8:28:9a:d1:e8:60:6b:eb:6f:81:8a:02:38:5e:ed:
         35:fc:65:a5:41:58:f7:73:43:04:74:ca:44:b2:3c:56:3a:4f:
         a3:dd:9f:1f:1e:c2:b3:34:72:a8:81:39:c7:41:0b:29:f3:db:
         4d:46:c1:a1:5f:a2:6e:b6:f5:5c:53:d5:da:03:dc:dc:ca:05:
         14:de
-----BEGIN CERTIFICATE-----
MIICDTCCAXYCAQEwDQYJKoZIhvcNAQEEBQAwVzELMAkGA1UEBhMCVVMxDjAMBgNV
BAgTBVVuc2V0MQ4wDAYDVQQHEwVVbnNldDEOMAwGA1UEChMFVW5zZXQxGDAWBgNV
BAMTD3d3dy5leGFtcGxlLmNvbTAeFw0xMzA1MDkwOTE5MDlaFw0xNDA1MDkwOTE5
MDlaMEcxCzAJBgNVBAYTAlVTMQ4wDAYDVQQIEwVVbnNldDEOMAwGA1UEChMFVW5z
ZXQxGDAWBgNVBAMTD3d3dy5leGFtcGxlLmNvbTCBnzANBgkqhkiG9w0BAQEFAAOB
jQAwgYkCgYEA1Cl+wGLzQZIH8AzC2G+sQ1unwiEnL3ukWRk0TMkTEeUPhgAgkNH+
4PaNQetHDnBclnF1YeAvdc/Us1Rh7Uh9l3naWfhI/uPkfZ/9nbClD9KQIJs5Ak+V
WRSGYU/xRfSg+vQyeBdpuoXJILigHOZ2ZQAKe/b5MtBn0RoWCkMKVV0CAwEAATAN
BgkqhkiG9w0BAQQFAAOBgQCQq+LU46xXO1GHp9gfePbLNmn7eZIuNjJ3VNzI2vzH
UvShslZM2lWD/sb8X6MWGgYBYxvW/gRTQuC4KJrR6GBr62+BigI4Xu01/GWlQVj3
c0MEdMpEsjxWOk+j3Z8fHsKzNHKogTnHQQsp89tNRsGhX6JutvVcU9XaA9zcygUU
3g==
-----END CERTIFICATE-----
