Certificate:
    Data:
        Version: 1 (0x0)
        Serial Number: 1 (0x1)
    Signature Algorithm: md5WithRSAEncryption
        Issuer: C=US, ST=Unset, L=Unset, O=Unset, CN=www.example.com
        Validity
            Not Before: Jul  5 01:39:03 2013 GMT
            Not After : Jul  5 01:39:03 2014 GMT
        Subject: C=US, ST=Unset, O=Unset, CN=www.example.com
        Subject Public Key Info:
            Public Key Algorithm: rsaEncryption
                Public-Key: (1024 bit)
                Modulus:
                    00:d3:5f:5c:39:d5:c1:52:31:cc:fc:80:ab:14:79:
                    5e:3e:2d:c3:d4:35:95:ed:9c:0f:89:41:c6:e9:3e:
                    27:0e:71:b8:04:d0:8a:f1:79:57:9e:a4:18:ce:dc:
                    b8:eb:8a:b8:16:8b:1e:52:99:6e:90:7f:f7:11:c8:
                    a2:ab:20:a0:f1:17:bd:eb:71:01:44:d3:08:24:30:
                    58:8d:85:33:f8:4f:5b:69:22:1d:70:4f:2e:c9:7f:
                    54:08:bd:71:65:ac:19:60:1c:78:a7:c7:d4:6a:8e:
                    c5:6a:48:06:b8:87:71:e9:f4:07:65:cf:ce:18:82:
                    81:0d:b7:27:38:0a:c2:27:dd
                Exponent: 65537 (0x10001)
    Signature Algorithm: md5WithRSAEncryption
         c9:54:e6:2b:41:61:eb:79:e8:87:e0:77:43:f8:ed:0e:cd:35:
         d4:2d:61:67:c7:85:dc:ea:96:77:83:b0:9a:df:ea:1d:35:5b:
         a4:96:a0:e5:34:8f:92:ee:87:84:ad:e3:1e:ed:02:b2:0d:12:
         1a:38:02:79:56:a7:e5:18:2e:79:30:0f:f2:92:5a:45:5d:5b:
         95:95:3f:82:fb:f9:3d:3d:2e:f4:c0:b3:67:b9:5a:5e:06:2f:
         0d:8f:99:50:5b:1a:c3:ba:a1:e5:fc:18:a2:59:2b:fd:4e:74:
         62:b3:63:9b:06:b4:95:74:2e:55:17:bd:92:90:76:e7:66:52:
         0b:88
-----BEGIN CERTIFICATE-----
MIICDTCCAXYCAQEwDQYJKoZIhvcNAQEEBQAwVzELMAkGA1UEBhMCVVMxDjAMBgNV
BAgTBVVuc2V0MQ4wDAYDVQQHEwVVbnNldDEOMAwGA1UEChMFVW5zZXQxGDAWBgNV
BAMTD3d3dy5leGFtcGxlLmNvbTAeFw0xMzA3MDUwMTM5MDNaFw0xNDA3MDUwMTM5
MDNaMEcxCzAJBgNVBAYTAlVTMQ4wDAYDVQQIEwVVbnNldDEOMAwGA1UEChMFVW5z
ZXQxGDAWBgNVBAMTD3d3dy5leGFtcGxlLmNvbTCBnzANBgkqhkiG9w0BAQEFAAOB
jQAwgYkCgYEA019cOdXBUjHM/ICrFHlePi3D1DWV7ZwPiUHG6T4nDnG4BNCK8XlX
nqQYzty464q4FoseUplukH/3EciiqyCg8Re963EBRNMIJDBYjYUz+E9baSIdcE8u
yX9UCL1xZawZYBx4p8fUao7FakgGuIdx6fQHZc/OGIKBDbcnOArCJ90CAwEAATAN
BgkqhkiG9w0BAQQFAAOBgQDJVOYrQWHreeiH4HdD+O0OzTXULWFnx4Xc6pZ3g7Ca
3+odNVuklqDlNI+S7oeEreMe7QKyDRIaOAJ5VqflGC55MA/yklpFXVuVlT+C+/k9
PS70wLNnuVpeBi8Nj5lQWxrDuqHl/BiiWSv9TnRis2ObBrSVdC5VF72SkHbnZlIL
iA==
-----END CERTIFICATE-----
