Certificate:
    Data:
        Version: 1 (0x0)
        Serial Number: 1 (0x1)
    Signature Algorithm: md5WithRSAEncryption
        Issuer: C=US, ST=Unset, L=Unset, O=Unset, CN=www.example.com
        Validity
            Not Before: May 29 15:43:55 2013 GMT
            Not After : May 29 15:43:55 2014 GMT
        Subject: C=US, ST=Unset, O=Unset, CN=www.example.com
        Subject Public Key Info:
            Public Key Algorithm: rsaEncryption
                Public-Key: (1024 bit)
                Modulus:
                    00:ca:03:ad:5f:99:47:47:f0:89:fe:8d:7a:dd:c0:
                    16:43:e8:95:c1:0d:60:b8:56:cc:ed:46:79:e4:df:
                    b5:a8:d6:ec:e7:46:de:52:a6:e7:95:30:69:83:36:
                    75:85:1d:40:be:ea:ea:b9:d5:e1:bc:d6:90:1c:66:
                    88:03:53:15:6b:85:f5:35:d3:90:a2:77:04:d9:66:
                    42:9d:43:94:50:ee:0e:e6:1a:cf:63:a8:f8:fd:33:
                    f4:02:23:c8:95:dc:52:1f:06:91:69:d6:15:8e:66:
                    e2:7f:b0:a3:7a:cb:2b:cc:09:2f:a5:3d:4d:95:da:
                    21:59:eb:a5:f5:d3:5f:58:f5
                Exponent: 65537 (0x10001)
    Signature Algorithm: md5WithRSAEncryption
         a2:32:ce:34:41:15:3b:34:fc:25:00:bb:19:23:27:f4:88:21:
         d6:50:4c:ea:cc:09:61:94:f2:3c:7d:dd:62:44:c5:b2:33:1b:
         5c:07:d9:0c:2c:8a:25:ff:41:8f:f8:1e:e8:d6:62:0b:a6:10:
         ea:de:07:b8:df:7f:83:0c:3e:0d:9a:e5:db:07:b0:fe:fa:de:
         e5:a9:3a:1b:02:b6:f1:5d:b8:de:c2:37:93:71:d2:70:12:ce:
         72:10:c7:07:48:31:bb:c9:35:18:60:56:a4:2c:71:57:9a:a6:
         20:ea:cb:b8:25:70:e0:eb:2b:8f:83:d0:66:77:2f:64:d6:c4:
         d6:13
-----BEGIN CERTIFICATE-----
MIICDTCCAXYCAQEwDQYJKoZIhvcNAQEEBQAwVzELMAkGA1UEBhMCVVMxDjAMBgNV
BAgTBVVuc2V0MQ4wDAYDVQQHEwVVbnNldDEOMAwGA1UEChMFVW5zZXQxGDAWBgNV
BAMTD3d3dy5leGFtcGxlLmNvbTAeFw0xMzA1MjkxNTQzNTVaFw0xNDA1MjkxNTQz
NTVaMEcxCzAJBgNVBAYTAlVTMQ4wDAYDVQQIEwVVbnNldDEOMAwGA1UEChMFVW5z
ZXQxGDAWBgNVBAMTD3d3dy5leGFtcGxlLmNvbTCBnzANBgkqhkiG9w0BAQEFAAOB
jQAwgYkCgYEAygOtX5lHR/CJ/o163cAWQ+iVwQ1guFbM7UZ55N+1qNbs50beUqbn
lTBpgzZ1hR1AvurqudXhvNaQHGaIA1MVa4X1NdOQoncE2WZCnUOUUO4O5hrPY6j4
/TP0AiPIldxSHwaRadYVjmbif7CjessrzAkvpT1NldohWeul9dNfWPUCAwEAATAN
BgkqhkiG9w0BAQQFAAOBgQCiMs40QRU7NPwlALsZIyf0iCHWUEzqzAlhlPI8fd1i
RMWyMxtcB9kMLIol/0GP+B7o1mILphDq3ge433+DDD4NmuXbB7D++t7lqTobArbx
XbjewjeTcdJwEs5yEMcHSDG7yTUYYFakLHFXmqYg6su4JXDg6yuPg9Bmdy9k1sTW
Ew==
-----END CERTIFICATE-----
