Certificate:
    Data:
        Version: 1 (0x0)
        Serial Number: 16 (0x10)
    Signature Algorithm: md5WithRSAEncryption
        Issuer: O=NOVA ROOT, L=Mountain View, ST=California, C=US
        Validity
            Not Before: May 10 00:50:47 2013 GMT
            Not After : May 10 00:50:47 2014 GMT
        Subject: C=US, ST=California, O=OpenStack, OU=NovaDev, CN=11530b633b6d480b-0e146d981ff04c12-2013-05-10T00:50:47Z
        Subject Public Key Info:
            Public Key Algorithm: rsaEncryption
                Public-Key: (1024 bit)
                Modulus:
                    00:d5:48:e3:80:44:ac:da:c3:fd:24:59:df:c6:08:
                    00:6e:3f:4e:b3:1e:6f:af:d7:66:12:f3:0d:f6:33:
                    7d:e5:6b:87:79:15:d8:f4:9b:48:65:69:ae:49:ba:
                    77:52:67:89:0c:d2:4c:00:6a:06:ba:f5:29:23:d1:
                    c6:b2:7a:2f:d5:2b:79:18:95:00:ca:be:9f:db:e5:
                    7b:db:2a:4a:09:75:ce:56:fc:90:eb:ab:74:89:bb:
                    cf:72:8e:fe:43:0c:5e:3c:15:8d:84:e9:b6:81:4f:
                    89:c9:f9:df:be:f7:a1:f0:69:0d:17:7e:da:f4:8f:
                    23:1d:98:f4:50:23:48:22:bd
                Exponent: 65537 (0x10001)
    Signature Algorithm: md5WithRSAEncryption
         2d:24:f6:19:71:8d:c1:77:79:30:a7:54:ae:d2:95:27:5f:e7:
         d8:56:34:95:ec:1c:b6:ce:7a:b9:0f:e4:2b:42:4f:8d:17:cc:
         d4:a6:a3:8d:3f:e4:7c:ea:14:a9:ff:4d:80:4d:fd:e2:b0:5f:
         18:46:99:ac:a0:3c:7a:87:f8:fd:65:b4:59:6e:e0:bd:08:0d:
         69:f2:bb:00:ba:06:5e:16:b9:4a:1b:28:a4:87:bf:67:33:e5:
         91:2d:91:9c:58:0c:5d:ed:de:3a:2d:00:f6:5d:ca:05:73:04:
         3f:78:9d:0d:1d:dc:a1:10:b2:7b:00:f9:8a:ef:4d:3a:34:49:
         69:8b
-----BEGIN CERTIFICATE-----
MIICRzCCAbACARAwDQYJKoZIhvcNAQEEBQAwTjESMBAGA1UEChMJTk9WQSBST09U
MRYwFAYDVQQHEw1Nb3VudGFpbiBWaWV3MRMwEQYDVQQIEwpDYWxpZm9ybmlhMQsw
CQYDVQQGEwJVUzAeFw0xMzA1MTAwMDUwNDdaFw0xNDA1MTAwMDUwNDdaMIGJMQsw
CQYDVQQGEwJVUzETMBEGA1UECAwKQ2FsaWZvcm5pYTESMBAGA1UECgwJT3BlblN0
YWNrMRAwDgYDVQQLDAdOb3ZhRGV2MT8wPQYDVQQDDDYxMTUzMGI2MzNiNmQ0ODBi
LTBlMTQ2ZDk4MWZmMDRjMTItMjAxMy0wNS0xMFQwMDo1MDo0N1owgZ8wDQYJKoZI
hvcNAQEBBQADgY0AMIGJAoGBANVI44BErNrD/SRZ38YIAG4/TrMeb6/XZhLzDfYz
feVrh3kV2PSbSGVprkm6d1JniQzSTABqBrr1KSPRxrJ6L9UreRiVAMq+n9vle9sq
Sgl1zlb8kOurdIm7z3KO/kMMXjwVjYTptoFPicn53773ofBpDRd+2vSPIx2Y9FAj
SCK9AgMBAAEwDQYJKoZIhvcNAQEEBQADgYEALST2GXGNwXd5MKdUrtKVJ1/n2FY0
lewcts56uQ/kK0JPjRfM1KajjT/kfOoUqf9NgE394rBfGEaZrKA8eof4/WW0WW7g
vQgNafK7ALoGXha5ShsopIe/ZzPlkS2RnFgMXe3eOi0A9l3KBXMEP3idDR3coRCy
ewD5iu9NOjRJaYs=
-----END CERTIFICATE-----
